target datalayout = "e-m:e-p270:32:32-p271:32:32-p272:64:64-i64:64-i128:128-f80:128-n8:16:32:64-S128"
target triple = "x86_64-pc-linux-gnu"

; Function Attrs: nounwind uwtable
define internal double @myround(double noundef %0) #0 {
  %2 = alloca double, align 8
  %3 = alloca double, align 8
  store double %0, ptr %3, align 8
  %4 = load double, ptr %3, align 8
  %5 = fcmp olt double %4, 0.000000e+00
  br i1 %5, label %6, label %9

6:                                                ; preds = %1
  %7 = load double, ptr %3, align 8
  %8 = fsub double %7, 5.000000e-01
  store double %8, ptr %2, align 8
  br label %12

9:                                                ; preds = %1
  %10 = load double, ptr %3, align 8
  %11 = fadd double %10, 5.000000e-01
  store double %11, ptr %2, align 8
  br label %12

12:                                               ; preds = %9, %6
  %13 = load double, ptr %2, align 8
  ret double %13
}

; Function Attrs: nounwind uwtable
define i32 @cli_bcapi_ilog2(ptr noundef %0, i32 noundef %1, i32 noundef %2) #0 {
  %4 = alloca i32, align 4
  %5 = alloca ptr, align 8
  %6 = alloca i32, align 4
  %7 = alloca i32, align 4
  %8 = alloca double, align 8
  store ptr %0, ptr %5, align 8
  store i32 %1, ptr %6, align 4
  store i32 %2, ptr %7, align 4
  %9 = load i32, ptr %7, align 4
  %10 = icmp ne i32 %9, 0
  br i1 %10, label %12, label %11

11:                                               ; preds = %3
  store i32 2147483647, ptr %4, align 4
  br label %25

12:                                               ; preds = %3
  %13 = load i32, ptr %6, align 4
  %14 = uitofp i32 %13 to double
  %15 = load i32, ptr %7, align 4
  %16 = uitofp i32 %15 to double
  %17 = fdiv double %14, %16
  %18 = call double @log(double noundef %17) #10
  %19 = fmul double 0x4190000000000000, %18
  %20 = call double @log(double noundef 2.000000e+00) #10
  %21 = fdiv double %19, %20
  store double %21, ptr %8, align 8
  %22 = load double, ptr %8, align 8
  %23 = call double @myround(double noundef %22)
  %24 = fptosi double %23 to i32
  store i32 %24, ptr %4, align 4
  br label %25

25:                                               ; preds = %12, %11
  %26 = load i32, ptr %4, align 4
  ret i32 %26
}