; Function Attrs: mustprogress nofree nounwind willreturn memory(write) uwtable
define i32 @cli_bcapi_ilog2(ptr nocapture noundef readnone %0, i32 noundef %1, i32 noundef %2) local_unnamed_addr #16 {
  %.not = icmp eq i32 %2, 0
  br i1 %.not, label %13, label %4

4:                                                ; preds = %3
  %5 = uitofp i32 %1 to double
  %6 = uitofp i32 %2 to double
  %7 = fdiv double %5, %6
  %8 = tail call double @log(double noundef %7) #29
  %9 = fmul double %8, 0x4190000000000000
  %10 = fdiv double %9, 0x3FE62E42FEFA39EF
  %11 = fcmp olt double %10, 0.000000e+00
  %.0.v.i = select i1 %11, double -5.000000e-01, double 5.000000e-01
  %.0.i = fadd double %10, %.0.v.i
  %12 = fptosi double %.0.i to i32
  br label %13

13:                                               ; preds = %3, %4
  %.0 = phi i32 [ %12, %4 ], [ 2147483647, %3 ]
  ret i32 %.0
}